target datalayout = "e-m:e-p270:32:32-p271:32:32-p272:64:64-i64:64-i128:128-f80:128-n8:16:32:64-S128"
target triple = "x86_64-pc-linux-gnu"

%struct.dt_iop_lut3d_params_t = type { [512 x i8], i32, i32, i32, [12288 x i8], [128 x i8] }

@.str.88 = private unnamed_addr constant [8 x i8] c"lutname\00", align 1
@.str.92 = private unnamed_addr constant [11 x i8] c"colorspace\00", align 1
@.str.94 = private unnamed_addr constant [14 x i8] c"interpolation\00", align 1
@.str.118 = private unnamed_addr constant [12 x i8] c"filepath[0]\00", align 1
@.str.119 = private unnamed_addr constant [9 x i8] c"filepath\00", align 1
@.str.120 = private unnamed_addr constant [13 x i8] c"nb_keypoints\00", align 1
@.str.121 = private unnamed_addr constant [10 x i8] c"c_clut[0]\00", align 1
@.str.122 = private unnamed_addr constant [7 x i8] c"c_clut\00", align 1
@.str.123 = private unnamed_addr constant [11 x i8] c"lutname[0]\00", align 1

; Function Attrs: nounwind uwtable
define ptr @get_p(ptr noundef %0, ptr noundef %1) #0 {
  %3 = alloca ptr, align 8
  %4 = alloca ptr, align 8
  %5 = alloca ptr, align 8
  %6 = alloca ptr, align 8
  %7 = alloca i32, align 4
  store ptr %0, ptr %4, align 8, !tbaa !15
  store ptr %1, ptr %5, align 8, !tbaa !41
  call void @llvm.lifetime.start.p0(i64 8, ptr %6) #13
  %8 = load ptr, ptr %4, align 8, !tbaa !15
  store ptr %8, ptr %6, align 8, !tbaa !43
  %9 = load ptr, ptr %5, align 8, !tbaa !41
  %10 = call i32 @strcmp(ptr noundef %9, ptr noundef @.str.118) #15
  %11 = icmp ne i32 %10, 0
  br i1 %11, label %16, label %12

12:                                               ; preds = %2
  %13 = load ptr, ptr %6, align 8, !tbaa !43
  %14 = getelementptr inbounds nuw %struct.dt_iop_lut3d_params_t, ptr %13, i32 0, i32 0
  %15 = getelementptr inbounds [512 x i8], ptr %14, i64 0, i64 0
  store ptr %15, ptr %3, align 8
  store i32 1, ptr %7, align 4
  br label %75

16:                                               ; preds = %2
  %17 = load ptr, ptr %5, align 8, !tbaa !41
  %18 = call i32 @strcmp(ptr noundef %17, ptr noundef @.str.119) #15
  %19 = icmp ne i32 %18, 0
  br i1 %19, label %23, label %20

20:                                               ; preds = %16
  %21 = load ptr, ptr %6, align 8, !tbaa !43
  %22 = getelementptr inbounds nuw %struct.dt_iop_lut3d_params_t, ptr %21, i32 0, i32 0
  store ptr %22, ptr %3, align 8
  store i32 1, ptr %7, align 4
  br label %75

23:                                               ; preds = %16
  %24 = load ptr, ptr %5, align 8, !tbaa !41
  %25 = call i32 @strcmp(ptr noundef %24, ptr noundef @.str.92) #15
  %26 = icmp ne i32 %25, 0
  br i1 %26, label %30, label %27

27:                                               ; preds = %23
  %28 = load ptr, ptr %6, align 8, !tbaa !43
  %29 = getelementptr inbounds nuw %struct.dt_iop_lut3d_params_t, ptr %28, i32 0, i32 1
  store ptr %29, ptr %3, align 8
  store i32 1, ptr %7, align 4
  br label %75

30:                                               ; preds = %23
  %31 = load ptr, ptr %5, align 8, !tbaa !41
  %32 = call i32 @strcmp(ptr noundef %31, ptr noundef @.str.94) #15
  %33 = icmp ne i32 %32, 0
  br i1 %33, label %37, label %34

34:                                               ; preds = %30
  %35 = load ptr, ptr %6, align 8, !tbaa !43
  %36 = getelementptr inbounds nuw %struct.dt_iop_lut3d_params_t, ptr %35, i32 0, i32 2
  store ptr %36, ptr %3, align 8
  store i32 1, ptr %7, align 4
  br label %75

37:                                               ; preds = %30
  %38 = load ptr, ptr %5, align 8, !tbaa !41
  %39 = call i32 @strcmp(ptr noundef %38, ptr noundef @.str.120) #15
  %40 = icmp ne i32 %39, 0
  br i1 %40, label %44, label %41

41:                                               ; preds = %37
  %42 = load ptr, ptr %6, align 8, !tbaa !43
  %43 = getelementptr inbounds nuw %struct.dt_iop_lut3d_params_t, ptr %42, i32 0, i32 3
  store ptr %43, ptr %3, align 8
  store i32 1, ptr %7, align 4
  br label %75

44:                                               ; preds = %37
  %45 = load ptr, ptr %5, align 8, !tbaa !41
  %46 = call i32 @strcmp(ptr noundef %45, ptr noundef @.str.121) #15
  %47 = icmp ne i32 %46, 0
  br i1 %47, label %52, label %48

48:                                               ; preds = %44
  %49 = load ptr, ptr %6, align 8, !tbaa !43
  %50 = getelementptr inbounds nuw %struct.dt_iop_lut3d_params_t, ptr %49, i32 0, i32 4
  %51 = getelementptr inbounds [12288 x i8], ptr %50, i64 0, i64 0
  store ptr %51, ptr %3, align 8
  store i32 1, ptr %7, align 4
  br label %75

52:                                               ; preds = %44
  %53 = load ptr, ptr %5, align 8, !tbaa !41
  %54 = call i32 @strcmp(ptr noundef %53, ptr noundef @.str.122) #15
  %55 = icmp ne i32 %54, 0
  br i1 %55, label %59, label %56

56:                                               ; preds = %52
  %57 = load ptr, ptr %6, align 8, !tbaa !43
  %58 = getelementptr inbounds nuw %struct.dt_iop_lut3d_params_t, ptr %57, i32 0, i32 4
  store ptr %58, ptr %3, align 8
  store i32 1, ptr %7, align 4
  br label %75

59:                                               ; preds = %52
  %60 = load ptr, ptr %5, align 8, !tbaa !41
  %61 = call i32 @strcmp(ptr noundef %60, ptr noundef @.str.123) #15
  %62 = icmp ne i32 %61, 0
  br i1 %62, label %67, label %63

63:                                               ; preds = %59
  %64 = load ptr, ptr %6, align 8, !tbaa !43
  %65 = getelementptr inbounds nuw %struct.dt_iop_lut3d_params_t, ptr %64, i32 0, i32 5
  %66 = getelementptr inbounds [128 x i8], ptr %65, i64 0, i64 0
  store ptr %66, ptr %3, align 8
  store i32 1, ptr %7, align 4
  br label %75

67:                                               ; preds = %59
  %68 = load ptr, ptr %5, align 8, !tbaa !41
  %69 = call i32 @strcmp(ptr noundef %68, ptr noundef @.str.88) #15
  %70 = icmp ne i32 %69, 0
  br i1 %70, label %74, label %71

71:                                               ; preds = %67
  %72 = load ptr, ptr %6, align 8, !tbaa !43
  %73 = getelementptr inbounds nuw %struct.dt_iop_lut3d_params_t, ptr %72, i32 0, i32 5
  store ptr %73, ptr %3, align 8
  store i32 1, ptr %7, align 4
  br label %75

74:                                               ; preds = %67
  store ptr null, ptr %3, align 8
  store i32 1, ptr %7, align 4
  br label %75

75:                                               ; preds = %74, %71, %63, %56, %48, %41, %34, %27, %20, %12
  call void @llvm.lifetime.end.p0(i64 8, ptr %6) #13
  %76 = load ptr, ptr %3, align 8
  ret ptr %76
}