; Function Attrs: mustprogress nofree nounwind willreturn memory(argmem: read) uwtable
define ptr @get_p(ptr noundef readnone %0, ptr noundef readonly captures(none) %1) local_unnamed_addr #20 {
  %3 = tail call i32 @strcmp(ptr noundef nonnull dereferenceable(1) %1, ptr noundef nonnull dereferenceable(12) @.str.118) #27
  %.not = icmp eq i32 %3, 0
  br i1 %.not, label %33, label %4

4:                                                ; preds = %2
  %5 = tail call i32 @strcmp(ptr noundef nonnull dereferenceable(1) %1, ptr noundef nonnull dereferenceable(9) @.str.119) #27
  %.not20 = icmp eq i32 %5, 0
  br i1 %.not20, label %33, label %6

6:                                                ; preds = %4
  %7 = tail call i32 @strcmp(ptr noundef nonnull dereferenceable(1) %1, ptr noundef nonnull dereferenceable(11) @.str.92) #27
  %.not21 = icmp eq i32 %7, 0
  br i1 %.not21, label %8, label %10

8:                                                ; preds = %6
  %9 = getelementptr inbounds nuw i8, ptr %0, i64 512
  br label %33

10:                                               ; preds = %6
  %11 = tail call i32 @strcmp(ptr noundef nonnull dereferenceable(1) %1, ptr noundef nonnull dereferenceable(14) @.str.94) #27
  %.not22 = icmp eq i32 %11, 0
  br i1 %.not22, label %12, label %14

12:                                               ; preds = %10
  %13 = getelementptr inbounds nuw i8, ptr %0, i64 516
  br label %33

14:                                               ; preds = %10
  %15 = tail call i32 @strcmp(ptr noundef nonnull dereferenceable(1) %1, ptr noundef nonnull dereferenceable(13) @.str.120) #27
  %.not23 = icmp eq i32 %15, 0
  br i1 %.not23, label %16, label %18

16:                                               ; preds = %14
  %17 = getelementptr inbounds nuw i8, ptr %0, i64 520
  br label %33

18:                                               ; preds = %14
  %19 = tail call i32 @strcmp(ptr noundef nonnull dereferenceable(1) %1, ptr noundef nonnull dereferenceable(10) @.str.121) #27
  %.not24 = icmp eq i32 %19, 0
  br i1 %.not24, label %20, label %22

20:                                               ; preds = %18
  %21 = getelementptr inbounds nuw i8, ptr %0, i64 524
  br label %33

22:                                               ; preds = %18
  %23 = tail call i32 @strcmp(ptr noundef nonnull dereferenceable(1) %1, ptr noundef nonnull dereferenceable(7) @.str.122) #27
  %.not25 = icmp eq i32 %23, 0
  br i1 %.not25, label %24, label %26

24:                                               ; preds = %22
  %25 = getelementptr inbounds nuw i8, ptr %0, i64 524
  br label %33

26:                                               ; preds = %22
  %27 = tail call i32 @strcmp(ptr noundef nonnull dereferenceable(1) %1, ptr noundef nonnull dereferenceable(11) @.str.123) #27
  %.not26 = icmp eq i32 %27, 0
  br i1 %.not26, label %28, label %30

28:                                               ; preds = %26
  %29 = getelementptr inbounds nuw i8, ptr %0, i64 12812
  br label %33

30:                                               ; preds = %26
  %31 = tail call i32 @strcmp(ptr noundef nonnull dereferenceable(1) %1, ptr noundef nonnull dereferenceable(8) @.str.88) #27
  %.not27 = icmp eq i32 %31, 0
  %32 = getelementptr inbounds nuw i8, ptr %0, i64 12812
  %spec.select = select i1 %.not27, ptr %32, ptr null
  br label %33

33:                                               ; preds = %30, %4, %2, %28, %24, %20, %16, %12, %8
  %.0 = phi ptr [ %29, %28 ], [ %25, %24 ], [ %21, %20 ], [ %17, %16 ], [ %13, %12 ], [ %9, %8 ], [ %0, %2 ], [ %0, %4 ], [ %spec.select, %30 ]
  ret ptr %.0
}